; Function Attrs: mustprogress nofree nounwind willreturn memory(read) uwtable
define dso_local { i64, i8 } @_ZNK4llvm3EVT21getExtendedSizeInBitsEv(ptr nocapture noundef nonnull readonly align 8 dereferenceable(16) %0) local_unnamed_addr #4 align 2 {
  %2 = getelementptr inbounds nuw i8, ptr %0, i64 8
  %3 = load ptr, ptr %2, align 8
  %4 = getelementptr inbounds nuw i8, ptr %3, i64 8
  %5 = load i32, ptr %4, align 8
  %6 = and i32 %5, 255
  %7 = icmp ne i32 %6, 12
  %.not12 = icmp eq ptr %3, null
  %.not = or i1 %.not12, %7
  br i1 %.not, label %11, label %8

8:                                                ; preds = %1
  %9 = lshr i32 %5, 8
  %10 = zext nneg i32 %9 to i64
  %.fca.0.insert.i = insertvalue { i64, i8 } poison, i64 %10, 0
  %.fca.1.insert.i = insertvalue { i64, i8 } %.fca.0.insert.i, i8 0, 1
  br label %15

11:                                               ; preds = %1
  %12 = add nsw i32 %6, -17
  %spec.select.i.i.i.i.i.i.i.i = icmp ult i32 %12, 2
  %spec.select.i.i11 = select i1 %spec.select.i.i.i.i.i.i.i.i, ptr %3, ptr null
  %13 = icmp ne ptr %spec.select.i.i11, null
  tail call void @llvm.assume(i1 %13)
  %14 = tail call { i64, i8 } @_ZNK4llvm4Type22getPrimitiveSizeInBitsEv(ptr noundef nonnull align 8 dereferenceable(24) %spec.select.i.i11) #14
  br label %15

15:                                               ; preds = %11, %8
  %.pn = phi { i64, i8 } [ %.fca.1.insert.i, %8 ], [ %14, %11 ]
  ret { i64, i8 } %.pn
}